; Function Attrs: mustprogress nofree norecurse nosync nounwind willreturn memory(read, inaccessiblemem: none) uwtable
define dso_local { ptr, i8 } @_ZNK4Json5Value5beginEv(ptr nocapture noundef nonnull readonly align 8 dereferenceable(40) %0) local_unnamed_addr #12 align 2 {
  %2 = getelementptr inbounds i8, ptr %0, i64 8
  %3 = load i16, ptr %2, align 8
  %4 = and i16 %3, 254
  %switch = icmp eq i16 %4, 6
  br i1 %switch, label %5, label %10

5:                                                ; preds = %1
  %6 = load ptr, ptr %0, align 8
  %.not = icmp eq ptr %6, null
  br i1 %.not, label %10, label %7

7:                                                ; preds = %5
  %8 = getelementptr inbounds i8, ptr %6, i64 24
  %9 = load ptr, ptr %8, align 8
  br label %10

10:                                               ; preds = %5, %1, %7
  %.sroa.01.0 = phi ptr [ %9, %7 ], [ null, %1 ], [ null, %5 ]
  %.sroa.3.0 = phi i8 [ 0, %7 ], [ 1, %1 ], [ 1, %5 ]
  %.fca.0.insert = insertvalue { ptr, i8 } poison, ptr %.sroa.01.0, 0
  %.fca.1.insert = insertvalue { ptr, i8 } %.fca.0.insert, i8 %.sroa.3.0, 1
  ret { ptr, i8 } %.fca.1.insert
}